; Function Attrs: nounwind uwtable
define dso_local void @crc32_begin(ptr noundef writeonly captures(none) initializes((2440, 2448)) %0) local_unnamed_addr #0 {
  %2 = tail call i64 @crc32(i64 noundef 0, ptr noundef null, i32 noundef 0) #13
  %3 = trunc i64 %2 to i32
  %4 = getelementptr inbounds nuw i8, ptr %0, i64 2444
  store i32 %3, ptr %4, align 4, !tbaa !31
  %5 = getelementptr inbounds nuw i8, ptr %0, i64 2440
  store i32 1, ptr %5, align 8, !tbaa !30
  ret void
}